ASxxxx Linker V03.00 + NoICE + sdld,  page 1.
Hexadecimal  [32-Bits]

Area                                    Addr        Size        Decimal Bytes (Attributes)
--------------------------------        ----        ----        ------- ----- ------------
.  .ABS.                            00000000    00000000 =           0. bytes (ABS,CON)

      Value  Global                              Global Defined In Module
      -----  --------------------------------   ------------------------
     FFFFFFFF  s_SSEG                          
     00000000  .__.ABS.                           
     00000000  l_CABS                          
     00000000  l_DABS                          
     00000000  l_INITIALIZED                   
     00000000  l_INITIALIZER                   
     00000000  l__CODE                         
     00000000  s_CABS                          
     00000000  s_DABS                          
     00000000  s__CODE                         
     00000001  l_SSEG                          
     00000001  s_DATA                          
     00000003  l_GSFINAL                       
     0000001A  l_GSINIT                        
     0000003F  l_DATA                          
     00000040  s_INITIALIZED                   
     0000006B  l_HOME                          
     000001A8  l_CONST                         
     000011E3  l_CODE                          
     00008000  s_HOME                          
     0000806B  s_GSINIT                        
     00008085  s_GSFINAL                       
     00008088  s_CONST                         
     00008230  s_CODE                          
     00008230  s_INITIALIZER                   

ASxxxx Linker V03.00 + NoICE + sdld,  page 2.
Hexadecimal  [32-Bits]

Area                                    Addr        Size        Decimal Bytes (Attributes)
--------------------------------        ----        ----        ------- ----- ------------
DATA                                00000001    0000003F =          63. bytes (REL,CON)

      Value  Global                              Global Defined In Module
      -----  --------------------------------   ------------------------
ASxxxx Linker V03.00 + NoICE + sdld,  page 3.
Hexadecimal  [32-Bits]

Area                                    Addr        Size        Decimal Bytes (Attributes)
--------------------------------        ----        ----        ------- ----- ------------
SSEG                                FFFFFFFF    00000001 =           1. bytes (REL,CON)

      Value  Global                              Global Defined In Module
      -----  --------------------------------   ------------------------
ASxxxx Linker V03.00 + NoICE + sdld,  page 4.
Hexadecimal  [32-Bits]

Area                                    Addr        Size        Decimal Bytes (Attributes)
--------------------------------        ----        ----        ------- ----- ------------
HOME                                00008000    0000006B =         107. bytes (REL,CON)

      Value  Global                              Global Defined In Module
      -----  --------------------------------   ------------------------
ASxxxx Linker V03.00 + NoICE + sdld,  page 5.
Hexadecimal  [32-Bits]

Area                                    Addr        Size        Decimal Bytes (Attributes)
--------------------------------        ----        ----        ------- ----- ------------
GSINIT                              0000806B    0000001A =          26. bytes (REL,CON)

      Value  Global                              Global Defined In Module
      -----  --------------------------------   ------------------------
ASxxxx Linker V03.00 + NoICE + sdld,  page 6.
Hexadecimal  [32-Bits]

Area                                    Addr        Size        Decimal Bytes (Attributes)
--------------------------------        ----        ----        ------- ----- ------------
GSFINAL                             00008085    00000003 =           3. bytes (REL,CON)

      Value  Global                              Global Defined In Module
      -----  --------------------------------   ------------------------
ASxxxx Linker V03.00 + NoICE + sdld,  page 7.
Hexadecimal  [32-Bits]

Area                                    Addr        Size        Decimal Bytes (Attributes)
--------------------------------        ----        ----        ------- ----- ------------
CONST                               00008088    000001A8 =         424. bytes (REL,CON)

      Value  Global                              Global Defined In Module
      -----  --------------------------------   ------------------------
     00008095  _Hex2CharMap                       display
     000080AA  _rawAdc                            adc
     000081F4  _paramMin                          params
     00008208  _paramMax                          params
     0000821C  _paramDefault                      params

ASxxxx Linker V03.00 + NoICE + sdld,  page 8.
Hexadecimal  [32-Bits]

Area                                    Addr        Size        Decimal Bytes (Attributes)
--------------------------------        ----        ----        ------- ----- ------------
CODE                                00008230    000011E3 =        4579. bytes (REL,CON)

      Value  Global                              Global Defined In Module
      -----  --------------------------------   ------------------------
     00008230  _main                              ts
     00008352  _initDisplay                       display
     000083A6  _refreshDisplay                    display
     0000841C  _setDisplayTestMode                display
     00008443  _setDisplayOff                     display
     00008449  _setDisplayDot                     display
     00008465  _setDisplayStr                     display
     00008868  _initTimer                         timer
     0000887F  _resetUptime                       timer
     00008887  _getUptime                         timer
     0000888F  _getUptimeTicks                    timer
     00008897  _getUptimeSeconds                  timer
     000088AA  _getUptimeMinutes                  timer
     000088B1  _getUptimeHours                    timer
     000088BB  _getUptimeDays                     timer
     000088CA  _TIM4_UPD_handler                  timer
     000089EF  _initButtons                       buttons
     00008A15  _getButton                         buttons
     00008A19  _getButtonDiff                     buttons
     00008A1D  _getButton1                        buttons
     00008A25  _getButton2                        buttons
     00008A2F  _getButton3                        buttons
     00008A37  _isButton1                         buttons
     00008A47  _isButton2                         buttons
     00008A57  _isButton3                         buttons
     00008A67  _EXTI2_handler                     buttons
     00008ABC  _initADC                           adc
     00008AE1  _startADC                          adc
     00008AE6  _getAdcResult                      adc
     00008AEA  _getAdcAveraged                    adc
     00008AFE  _getTemperature                    adc
     00008BAE  _ADC1_EOC_handler                  adc
     00008C48  _initMenu                          menu
     00008C55  _getMenuDisplay                    menu
     00008C59  _feedMenu                          menu
     00008F29  _refreshMenu                       menu
     00008F37  _initParamsEEPROM                  params
     00008F8F  _getParamById                      params
     00008FA2  _setParamById                      params
     00008FB4  _getParam                          params
     00008FBF  _setParam                          params
     00008FCB  _incParam                          params
     0000900D  _decParam                          params
     0000904F  _getParamId                        params
     00009053  _setParamId                        params
     00009060  _incParamId                        params
     00009071  _decParamId                        params
     00009081  _paramToString                     params
     0000919B  _storeParams                       params
     000091F0  _itofpa                            params
ASxxxx Linker V03.00 + NoICE + sdld,  page 9.
Hexadecimal  [32-Bits]

Area                                    Addr        Size        Decimal Bytes (Attributes)
--------------------------------        ----        ----        ------- ----- ------------
CODE                                00008230    000011E3 =        4579. bytes (REL,CON)

      Value  Global                              Global Defined In Module
      -----  --------------------------------   ------------------------
     000092F2  _initRelay                         relay
     00009303  _setRelay                          relay
     00009316  _refreshRelay                      relay
     000093E9  __modsint                          
     000093FF  __divsint                          

ASxxxx Linker V03.00 + NoICE + sdld,  page 10.

Files Linked                              [ module(s) ]

./Build/ts.c.rel                          [ ts ]
./Build/display.c.rel                     [ display ]
./Build/timer.c.rel                       [ timer ]
./Build/buttons.c.rel                     [ buttons ]
./Build/adc.c.rel                         [ adc ]
./Build/menu.c.rel                        [ menu ]
./Build/params.c.rel                      [ params ]
./Build/relay.c.rel                       [ relay ]


Libraries Linked                          [ object file ]

/usr/bin/../share/sdcc/lib/stm8/stm8.lib  [ _modsint.rel ]
/usr/bin/../share/sdcc/lib/stm8/stm8.lib  [ _divsint.rel ]

ASxxxx Linker V03.00 + NoICE + sdld,  page 11.

User Base Address Definitions

HOME = 0x8000
DATA = 0x0001
SSEG = 0xffffffff

