                                      1 ;--------------------------------------------------------
                                      2 ; File Created by SDCC : free open source ANSI-C Compiler
                                      3 ; Version 4.0.0 #11528 (Linux)
                                      4 ;--------------------------------------------------------
                                      5 	.module menu
                                      6 	.optsdcc -mstm8
                                      7 	
                                      8 ;--------------------------------------------------------
                                      9 ; Public variables in this module
                                     10 ;--------------------------------------------------------
                                     11 	.globl _getUptimeTicks
                                     12 	.globl _setParamId
                                     13 	.globl _getParamById
                                     14 	.globl _storeParams
                                     15 	.globl _decParamId
                                     16 	.globl _incParamId
                                     17 	.globl _decParam
                                     18 	.globl _incParam
                                     19 	.globl _setDisplayOff
                                     20 	.globl _dimmerBrightness
                                     21 	.globl _getButton3
                                     22 	.globl _getButton2
                                     23 	.globl _getButton1
                                     24 	.globl _getSensorFail
                                     25 	.globl _initMenu
                                     26 	.globl _getMenuDisplay
                                     27 	.globl _setMenuDisplay
                                     28 	.globl _feedMenu
                                     29 	.globl _refreshMenu
                                     30 ;--------------------------------------------------------
                                     31 ; ram data
                                     32 ;--------------------------------------------------------
                                     33 	.area DATA
      000000                         34 _menuDisplay:
      000000                         35 	.ds 1
      000001                         36 _menuState:
      000001                         37 	.ds 1
      000002                         38 _timer:
      000002                         39 	.ds 2
                                     40 ;--------------------------------------------------------
                                     41 ; ram data
                                     42 ;--------------------------------------------------------
                                     43 	.area INITIALIZED
      000000                         44 _autoBrightness:
      000000                         45 	.ds 1
      000001                         46 _lowBrightness:
      000001                         47 	.ds 1
                                     48 ;--------------------------------------------------------
                                     49 ; absolute external ram data
                                     50 ;--------------------------------------------------------
                                     51 	.area DABS (ABS)
                                     52 
                                     53 ; default segment ordering for linker
                                     54 	.area HOME
                                     55 	.area GSINIT
                                     56 	.area GSFINAL
                                     57 	.area CONST
                                     58 	.area INITIALIZER
                                     59 	.area CODE
                                     60 
                                     61 ;--------------------------------------------------------
                                     62 ; global & static initialisations
                                     63 ;--------------------------------------------------------
                                     64 	.area HOME
                                     65 	.area GSINIT
                                     66 	.area GSFINAL
                                     67 	.area GSINIT
                                     68 ;--------------------------------------------------------
                                     69 ; Home
                                     70 ;--------------------------------------------------------
                                     71 	.area HOME
                                     72 	.area HOME
                                     73 ;--------------------------------------------------------
                                     74 ; code
                                     75 ;--------------------------------------------------------
                                     76 	.area CODE
                                     77 ;	./menu.c: 44: void initMenu()
                                     78 ;	-----------------------------------------
                                     79 ;	 function initMenu
                                     80 ;	-----------------------------------------
      000000                         81 _initMenu:
                                     82 ;	./menu.c: 46: timer = 0;
      000000 5F               [ 1]   83 	clrw	x
      000001 CFu00u02         [ 2]   84 	ldw	_timer+0, x
                                     85 ;	./menu.c: 47: menuState = menuDisplay = MENU_ROOT;
      000004 72 5Fu00u00      [ 1]   86 	clr	_menuDisplay+0
      000008 72 5Fu00u01      [ 1]   87 	clr	_menuState+0
                                     88 ;	./menu.c: 48: }
      00000C 81               [ 4]   89 	ret
                                     90 ;	./menu.c: 54: unsigned char getMenuDisplay()
                                     91 ;	-----------------------------------------
                                     92 ;	 function getMenuDisplay
                                     93 ;	-----------------------------------------
      00000D                         94 _getMenuDisplay:
                                     95 ;	./menu.c: 56: return menuDisplay;
      00000D C6u00u00         [ 1]   96 	ld	a, _menuDisplay+0
                                     97 ;	./menu.c: 57: }
      000010 81               [ 4]   98 	ret
                                     99 ;	./menu.c: 59: void setMenuDisplay(unsigned char _menu)
                                    100 ;	-----------------------------------------
                                    101 ;	 function setMenuDisplay
                                    102 ;	-----------------------------------------
      000011                        103 _setMenuDisplay:
                                    104 ;	./menu.c: 61: menuDisplay = _menu;
      000011 7B 03            [ 1]  105 	ld	a, (0x03, sp)
      000013 C7u00u00         [ 1]  106 	ld	_menuDisplay+0, a
                                    107 ;	./menu.c: 62: }
      000016 81               [ 4]  108 	ret
                                    109 ;	./menu.c: 81: void feedMenu (unsigned char event)
                                    110 ;	-----------------------------------------
                                    111 ;	 function feedMenu
                                    112 ;	-----------------------------------------
      000017                        113 _feedMenu:
      000017 52 04            [ 2]  114 	sub	sp, #4
                                    115 ;	./menu.c: 86: switch (event) {
      000019 7B 07            [ 1]  116 	ld	a, (0x07, sp)
      00001B A1 06            [ 1]  117 	cp	a, #0x06
      00001D 22 04            [ 1]  118 	jrugt	00502$
      00001F 0F 01            [ 1]  119 	clr	(0x01, sp)
      000021 20 04            [ 2]  120 	jra	00503$
      000023                        121 00502$:
      000023 A6 01            [ 1]  122 	ld	a, #0x01
      000025 6B 01            [ 1]  123 	ld	(0x01, sp), a
      000027                        124 00503$:
                                    125 ;	./menu.c: 104: if (timer < MENU_5_SEC_PASSED) {
      000027 CEu00u02         [ 2]  126 	ldw	x, _timer+0
      00002A A3 00 A0         [ 2]  127 	cpw	x, #0x00a0
      00002D 4F               [ 1]  128 	clr	a
      00002E 49               [ 1]  129 	rlc	a
      00002F 6B 02            [ 1]  130 	ld	(0x02, sp), a
                                    131 ;	./menu.c: 174: if (timer > MENU_5_SEC_PASSED) {
      000031 CEu00u02         [ 2]  132 	ldw	x, _timer+0
      000034 A3 00 A0         [ 2]  133 	cpw	x, #0x00a0
      000037 22 04            [ 1]  134 	jrugt	00504$
      000039 0F 03            [ 1]  135 	clr	(0x03, sp)
      00003B 20 04            [ 2]  136 	jra	00505$
      00003D                        137 00504$:
      00003D A6 01            [ 1]  138 	ld	a, #0x01
      00003F 6B 03            [ 1]  139 	ld	(0x03, sp), a
      000041                        140 00505$:
                                    141 ;	./menu.c: 85: if (menuState == MENU_ROOT) {
      000041 72 5Du00u01      [ 1]  142 	tnz	_menuState+0
      000045 27 03            [ 1]  143 	jreq	00506$
      000047 CCr01rC2         [ 2]  144 	jp	00248$
      00004A                        145 00506$:
                                    146 ;	./menu.c: 86: switch (event) {
      00004A 0D 01            [ 1]  147 	tnz	(0x01, sp)
      00004C 27 03            [ 1]  148 	jreq	00507$
      00004E CCr01rAC         [ 2]  149 	jp	00147$
      000051                        150 00507$:
      000051 5F               [ 1]  151 	clrw	x
      000052 7B 07            [ 1]  152 	ld	a, (0x07, sp)
      000054 97               [ 1]  153 	ld	xl, a
      000055 58               [ 2]  154 	sllw	x
      000056 DEu00u5A         [ 2]  155 	ldw	x, (#00508$, x)
      000059 FC               [ 2]  156 	jp	(x)
      00005A                        157 00508$:
      00005Ar00r68                  158 	.dw	#00101$
      00005Cr00rD6                  159 	.dw	#00115$
      00005Er00rF0                  160 	.dw	#00119$
      000060r00rAB                  161 	.dw	#00108$
      000062r00rE9                  162 	.dw	#00118$
      000064r01r03                  163 	.dw	#00122$
      000066r01r0A                  164 	.dw	#00123$
                                    165 ;	./menu.c: 87: case MENU_EVENT_PUSH_BUTTON1:
      000068                        166 00101$:
                                    167 ;	./menu.c: 88: timer = 0;
      000068 5F               [ 1]  168 	clrw	x
      000069 CFu00u02         [ 2]  169 	ldw	_timer+0, x
                                    170 ;	./menu.c: 89: if ((getParamById (PARAM_RELAY_MODE) == 2) || (getParamById (PARAM_RELAY_MODE) == 3)) {
      00006C 4B 00            [ 1]  171 	push	#0x00
      00006E CDr00r00         [ 4]  172 	call	_getParamById
      000071 84               [ 1]  173 	pop	a
      000072 A3 00 02         [ 2]  174 	cpw	x, #0x0002
      000075 27 0B            [ 1]  175 	jreq	00102$
      000077 4B 00            [ 1]  176 	push	#0x00
      000079 CDr00r00         [ 4]  177 	call	_getParamById
      00007C 84               [ 1]  178 	pop	a
      00007D A3 00 03         [ 2]  179 	cpw	x, #0x0003
      000080 26 06            [ 1]  180 	jrne	00103$
      000082                        181 00102$:
                                    182 ;	./menu.c: 90: menuDisplay = MENU_ALARM;
      000082 35 04u00u00      [ 1]  183 	mov	_menuDisplay+0, #0x04
      000086 20 04            [ 2]  184 	jra	00104$
      000088                        185 00103$:
                                    186 ;	./menu.c: 92: menuDisplay = MENU_SET_THRESHOLD;
      000088 35 01u00u00      [ 1]  187 	mov	_menuDisplay+0, #0x01
      00008C                        188 00104$:
                                    189 ;	./menu.c: 94: setDisplayOff (0);
      00008C 4B 00            [ 1]  190 	push	#0x00
      00008E CDr00r00         [ 4]  191 	call	_setDisplayOff
      000091 84               [ 1]  192 	pop	a
                                    193 ;	./menu.c: 96: if(getParamById (PARAM_AUTO_BRIGHT) ) {
      000092 4B 08            [ 1]  194 	push	#0x08
      000094 CDr00r00         [ 4]  195 	call	_getParamById
      000097 84               [ 1]  196 	pop	a
      000098 5D               [ 2]  197 	tnzw	x
      000099 26 03            [ 1]  198 	jrne	00515$
      00009B CCr04r98         [ 2]  199 	jp	00250$
      00009E                        200 00515$:
                                    201 ;	./menu.c: 97: lowBrightness = false;
      00009E 72 5Fu00u01      [ 1]  202 	clr	_lowBrightness+0
                                    203 ;	./menu.c: 98: dimmerBrightness(lowBrightness);
      0000A2 4B 00            [ 1]  204 	push	#0x00
      0000A4 CDr00r00         [ 4]  205 	call	_dimmerBrightness
      0000A7 84               [ 1]  206 	pop	a
                                    207 ;	./menu.c: 101: break;
      0000A8 CCr04r98         [ 2]  208 	jp	00250$
                                    209 ;	./menu.c: 103: case MENU_EVENT_RELEASE_BUTTON1:
      0000AB                        210 00108$:
                                    211 ;	./menu.c: 104: if (timer < MENU_5_SEC_PASSED) {
      0000AB 0D 02            [ 1]  212 	tnz	(0x02, sp)
      0000AD 27 20            [ 1]  213 	jreq	00114$
                                    214 ;	./menu.c: 105: if ((getParamById (PARAM_RELAY_MODE) == 2) || (getParamById (PARAM_RELAY_MODE) == 3)) {
      0000AF 4B 00            [ 1]  215 	push	#0x00
      0000B1 CDr00r00         [ 4]  216 	call	_getParamById
      0000B4 84               [ 1]  217 	pop	a
      0000B5 A3 00 02         [ 2]  218 	cpw	x, #0x0002
      0000B8 27 0B            [ 1]  219 	jreq	00109$
      0000BA 4B 00            [ 1]  220 	push	#0x00
      0000BC CDr00r00         [ 4]  221 	call	_getParamById
      0000BF 84               [ 1]  222 	pop	a
      0000C0 A3 00 03         [ 2]  223 	cpw	x, #0x0003
      0000C3 26 06            [ 1]  224 	jrne	00110$
      0000C5                        225 00109$:
                                    226 ;	./menu.c: 106: menuState = MENU_ALARM;
      0000C5 35 04u00u01      [ 1]  227 	mov	_menuState+0, #0x04
      0000C9 20 04            [ 2]  228 	jra	00114$
      0000CB                        229 00110$:
                                    230 ;	./menu.c: 108: menuState = MENU_SET_THRESHOLD;
      0000CB 35 01u00u01      [ 1]  231 	mov	_menuState+0, #0x01
      0000CF                        232 00114$:
                                    233 ;	./menu.c: 112: timer = 0;
      0000CF 5F               [ 1]  234 	clrw	x
      0000D0 CFu00u02         [ 2]  235 	ldw	_timer+0, x
                                    236 ;	./menu.c: 113: break;
      0000D3 CCr04r98         [ 2]  237 	jp	00250$
                                    238 ;	./menu.c: 115: case MENU_EVENT_PUSH_BUTTON2:
      0000D6                        239 00115$:
                                    240 ;	./menu.c: 116: if(getParamById (PARAM_AUTO_BRIGHT) ) {
      0000D6 4B 08            [ 1]  241 	push	#0x08
      0000D8 CDr00r00         [ 4]  242 	call	_getParamById
      0000DB 84               [ 1]  243 	pop	a
      0000DC 5D               [ 2]  244 	tnzw	x
      0000DD 27 0A            [ 1]  245 	jreq	00118$
                                    246 ;	./menu.c: 117: lowBrightness = false;
      0000DF 72 5Fu00u01      [ 1]  247 	clr	_lowBrightness+0
                                    248 ;	./menu.c: 118: dimmerBrightness(lowBrightness);
      0000E3 4B 00            [ 1]  249 	push	#0x00
      0000E5 CDr00r00         [ 4]  250 	call	_dimmerBrightness
      0000E8 84               [ 1]  251 	pop	a
                                    252 ;	./menu.c: 120: case MENU_EVENT_RELEASE_BUTTON2:
      0000E9                        253 00118$:
                                    254 ;	./menu.c: 121: timer = 0;
      0000E9 5F               [ 1]  255 	clrw	x
      0000EA CFu00u02         [ 2]  256 	ldw	_timer+0, x
                                    257 ;	./menu.c: 122: break;
      0000ED CCr04r98         [ 2]  258 	jp	00250$
                                    259 ;	./menu.c: 124: case MENU_EVENT_PUSH_BUTTON3:
      0000F0                        260 00119$:
                                    261 ;	./menu.c: 125: if(getParamById (PARAM_AUTO_BRIGHT) ) {
      0000F0 4B 08            [ 1]  262 	push	#0x08
      0000F2 CDr00r00         [ 4]  263 	call	_getParamById
      0000F5 84               [ 1]  264 	pop	a
      0000F6 5D               [ 2]  265 	tnzw	x
      0000F7 27 0A            [ 1]  266 	jreq	00122$
                                    267 ;	./menu.c: 126: lowBrightness = false;
      0000F9 72 5Fu00u01      [ 1]  268 	clr	_lowBrightness+0
                                    269 ;	./menu.c: 127: dimmerBrightness(lowBrightness);
      0000FD 4B 00            [ 1]  270 	push	#0x00
      0000FF CDr00r00         [ 4]  271 	call	_dimmerBrightness
      000102 84               [ 1]  272 	pop	a
                                    273 ;	./menu.c: 130: case MENU_EVENT_RELEASE_BUTTON3:
      000103                        274 00122$:
                                    275 ;	./menu.c: 131: timer = 0;
      000103 5F               [ 1]  276 	clrw	x
      000104 CFu00u02         [ 2]  277 	ldw	_timer+0, x
                                    278 ;	./menu.c: 132: break;
      000107 CCr04r98         [ 2]  279 	jp	00250$
                                    280 ;	./menu.c: 134: case MENU_EVENT_CHECK_TIMER:
      00010A                        281 00123$:
                                    282 ;	./menu.c: 135: if (getButton1() ) {
      00010A CDr00r00         [ 4]  283 	call	_getButton1
      00010D 4D               [ 1]  284 	tnz	a
      00010E 27 20            [ 1]  285 	jreq	00127$
                                    286 ;	./menu.c: 136: if (timer > MENU_3_SEC_PASSED) {
      000110 CEu00u02         [ 2]  287 	ldw	x, _timer+0
      000113 A3 00 60         [ 2]  288 	cpw	x, #0x0060
      000116 23 18            [ 2]  289 	jrule	00127$
                                    290 ;	./menu.c: 137: setParamId (0);
      000118 4B 00            [ 1]  291 	push	#0x00
      00011A CDr00r00         [ 4]  292 	call	_setParamId
      00011D 84               [ 1]  293 	pop	a
                                    294 ;	./menu.c: 138: timer = 0;
      00011E 5F               [ 1]  295 	clrw	x
      00011F CFu00u02         [ 2]  296 	ldw	_timer+0, x
                                    297 ;	./menu.c: 139: setDisplayOff (0);
      000122 4B 00            [ 1]  298 	push	#0x00
      000124 CDr00r00         [ 4]  299 	call	_setDisplayOff
      000127 84               [ 1]  300 	pop	a
                                    301 ;	./menu.c: 140: menuState = menuDisplay = MENU_SELECT_PARAM;
      000128 35 02u00u00      [ 1]  302 	mov	_menuDisplay+0, #0x02
      00012C 35 02u00u01      [ 1]  303 	mov	_menuState+0, #0x02
      000130                        304 00127$:
                                    305 ;	./menu.c: 144: if (timer > MENU_3_SEC_PASSED) {
      000130 CEu00u02         [ 2]  306 	ldw	x, _timer+0
      000133 A3 00 60         [ 2]  307 	cpw	x, #0x0060
      000136 23 27            [ 2]  308 	jrule	00135$
                                    309 ;	./menu.c: 145: if (menuDisplay == MENU_EEPROM_LOCKED) {
      000138 C6u00u00         [ 1]  310 	ld	a, _menuDisplay+0
      00013B A1 08            [ 1]  311 	cp	a, #0x08
      00013D 26 0A            [ 1]  312 	jrne	00132$
                                    313 ;	./menu.c: 146: menuDisplay = MENU_EEPROM_LOC_2;
      00013F 35 09u00u00      [ 1]  314 	mov	_menuDisplay+0, #0x09
                                    315 ;	./menu.c: 147: timer = 0;
      000143 5F               [ 1]  316 	clrw	x
      000144 CFu00u02         [ 2]  317 	ldw	_timer+0, x
      000147 20 16            [ 2]  318 	jra	00135$
      000149                        319 00132$:
                                    320 ;	./menu.c: 148: } else if ((menuDisplay == MENU_EEPROM_LOC_2) || (menuDisplay == MENU_EEPROM_RESET)) {
      000149 C6u00u00         [ 1]  321 	ld	a, _menuDisplay+0
      00014C A1 09            [ 1]  322 	cp	a, #0x09
      00014E 27 07            [ 1]  323 	jreq	00128$
      000150 C6u00u00         [ 1]  324 	ld	a, _menuDisplay+0
      000153 A1 07            [ 1]  325 	cp	a, #0x07
      000155 26 08            [ 1]  326 	jrne	00135$
      000157                        327 00128$:
                                    328 ;	./menu.c: 149: menuDisplay = MENU_ROOT;
      000157 72 5Fu00u00      [ 1]  329 	clr	_menuDisplay+0
                                    330 ;	./menu.c: 150: timer = 0;
      00015B 5F               [ 1]  331 	clrw	x
      00015C CFu00u02         [ 2]  332 	ldw	_timer+0, x
      00015F                        333 00135$:
                                    334 ;	./menu.c: 154: if(timer > MENU_15_SEC_PASSED) {
      00015F CEu00u02         [ 2]  335 	ldw	x, _timer+0
      000162 A3 01 E0         [ 2]  336 	cpw	x, #0x01e0
      000165 23 21            [ 2]  337 	jrule	00142$
                                    338 ;	./menu.c: 155: if(getParamById (PARAM_AUTO_BRIGHT) ) {
      000167 4B 08            [ 1]  339 	push	#0x08
      000169 CDr00r00         [ 4]  340 	call	_getParamById
      00016C 84               [ 1]  341 	pop	a
      00016D 5D               [ 2]  342 	tnzw	x
      00016E 27 18            [ 1]  343 	jreq	00142$
                                    344 ;	./menu.c: 156: if ((autoBrightness) && (!lowBrightness)) {
      000170 72 00u00u00 02   [ 2]  345 	btjt	_autoBrightness+0, #0, 00539$
      000175 20 11            [ 2]  346 	jra	00142$
      000177                        347 00539$:
      000177 72 01u00u01 02   [ 2]  348 	btjf	_lowBrightness+0, #0, 00540$
      00017C 20 0A            [ 2]  349 	jra	00142$
      00017E                        350 00540$:
                                    351 ;	./menu.c: 157: lowBrightness = true;
      00017E 35 01u00u01      [ 1]  352 	mov	_lowBrightness+0, #0x01
                                    353 ;	./menu.c: 158: dimmerBrightness(lowBrightness);
      000182 4B 01            [ 1]  354 	push	#0x01
      000184 CDr00r00         [ 4]  355 	call	_dimmerBrightness
      000187 84               [ 1]  356 	pop	a
      000188                        357 00142$:
                                    358 ;	./menu.c: 163: if(lowBrightness) {
      000188 72 00u00u01 03   [ 2]  359 	btjt	_lowBrightness+0, #0, 00541$
      00018D CCr04r98         [ 2]  360 	jp	00250$
      000190                        361 00541$:
                                    362 ;	./menu.c: 164: if(getSensorFail() > 0) {
      000190 CDr00r00         [ 4]  363 	call	_getSensorFail
      000193 A3 00 00         [ 2]  364 	cpw	x, #0x0000
      000196 2C 03            [ 1]  365 	jrsgt	00542$
      000198 CCr04r98         [ 2]  366 	jp	00250$
      00019B                        367 00542$:
                                    368 ;	./menu.c: 165: lowBrightness = false;
      00019B 72 5Fu00u01      [ 1]  369 	clr	_lowBrightness+0
                                    370 ;	./menu.c: 166: dimmerBrightness(lowBrightness);
      00019F 4B 00            [ 1]  371 	push	#0x00
      0001A1 CDr00r00         [ 4]  372 	call	_dimmerBrightness
      0001A4 84               [ 1]  373 	pop	a
                                    374 ;	./menu.c: 167: timer = 0;
      0001A5 5F               [ 1]  375 	clrw	x
      0001A6 CFu00u02         [ 2]  376 	ldw	_timer+0, x
                                    377 ;	./menu.c: 171: break;
      0001A9 CCr04r98         [ 2]  378 	jp	00250$
                                    379 ;	./menu.c: 173: default:
      0001AC                        380 00147$:
                                    381 ;	./menu.c: 174: if (timer > MENU_5_SEC_PASSED) {
      0001AC 0D 03            [ 1]  382 	tnz	(0x03, sp)
      0001AE 26 03            [ 1]  383 	jrne	00543$
      0001B0 CCr04r98         [ 2]  384 	jp	00250$
      0001B3                        385 00543$:
                                    386 ;	./menu.c: 175: menuState = menuDisplay = MENU_ROOT;
      0001B3 72 5Fu00u00      [ 1]  387 	clr	_menuDisplay+0
      0001B7 72 5Fu00u01      [ 1]  388 	clr	_menuState+0
                                    389 ;	./menu.c: 176: timer = 0;
      0001BB 5F               [ 1]  390 	clrw	x
      0001BC CFu00u02         [ 2]  391 	ldw	_timer+0, x
                                    392 ;	./menu.c: 180: }
      0001BF CCr04r98         [ 2]  393 	jp	00250$
      0001C2                        394 00248$:
                                    395 ;	./menu.c: 205: if (timer > MENU_1_SEC_PASSED + MENU_AUTOINC_DELAY) {
      0001C2 CEu00u02         [ 2]  396 	ldw	x, _timer+0
      0001C5 A3 00 24         [ 2]  397 	cpw	x, #0x0024
      0001C8 22 04            [ 1]  398 	jrugt	00544$
      0001CA 0F 04            [ 1]  399 	clr	(0x04, sp)
      0001CC 20 04            [ 2]  400 	jra	00545$
      0001CE                        401 00544$:
      0001CE A6 01            [ 1]  402 	ld	a, #0x01
      0001D0 6B 04            [ 1]  403 	ld	(0x04, sp), a
      0001D2                        404 00545$:
                                    405 ;	./menu.c: 181: } else if (menuState == MENU_SELECT_PARAM) {
      0001D2 C6u00u01         [ 1]  406 	ld	a, _menuState+0
      0001D5 A1 02            [ 1]  407 	cp	a, #0x02
      0001D7 27 03            [ 1]  408 	jreq	00548$
      0001D9 CCr02r64         [ 2]  409 	jp	00245$
      0001DC                        410 00548$:
                                    411 ;	./menu.c: 182: switch (event) {
      0001DC 0D 01            [ 1]  412 	tnz	(0x01, sp)
      0001DE 27 03            [ 1]  413 	jreq	00549$
      0001E0 CCr04r98         [ 2]  414 	jp	00250$
      0001E3                        415 00549$:
      0001E3 5F               [ 1]  416 	clrw	x
      0001E4 7B 07            [ 1]  417 	ld	a, (0x07, sp)
      0001E6 97               [ 1]  418 	ld	xl, a
      0001E7 58               [ 2]  419 	sllw	x
      0001E8 DEu01uEC         [ 2]  420 	ldw	x, (#00550$, x)
      0001EB FC               [ 2]  421 	jp	(x)
      0001EC                        422 00550$:
      0001ECr01rFA                  423 	.dw	#00151$
      0001EEr02r09                  424 	.dw	#00153$
      0001F0r02r13                  425 	.dw	#00155$
      0001F2r02r02                  426 	.dw	#00152$
      0001F4r02r0C                  427 	.dw	#00154$
      0001F6r02r16                  428 	.dw	#00156$
      0001F8r02r1D                  429 	.dw	#00157$
                                    430 ;	./menu.c: 183: case MENU_EVENT_PUSH_BUTTON1:
      0001FA                        431 00151$:
                                    432 ;	./menu.c: 184: menuState = menuDisplay = MENU_CHANGE_PARAM;
      0001FA 35 03u00u00      [ 1]  433 	mov	_menuDisplay+0, #0x03
      0001FE 35 03u00u01      [ 1]  434 	mov	_menuState+0, #0x03
                                    435 ;	./menu.c: 186: case MENU_EVENT_RELEASE_BUTTON1:
      000202                        436 00152$:
                                    437 ;	./menu.c: 187: timer = 0;
      000202 5F               [ 1]  438 	clrw	x
      000203 CFu00u02         [ 2]  439 	ldw	_timer+0, x
                                    440 ;	./menu.c: 188: break;
      000206 CCr04r98         [ 2]  441 	jp	00250$
                                    442 ;	./menu.c: 190: case MENU_EVENT_PUSH_BUTTON2:
      000209                        443 00153$:
                                    444 ;	./menu.c: 191: incParamId();
      000209 CDr00r00         [ 4]  445 	call	_incParamId
                                    446 ;	./menu.c: 193: case MENU_EVENT_RELEASE_BUTTON2:
      00020C                        447 00154$:
                                    448 ;	./menu.c: 194: timer = 0;
      00020C 5F               [ 1]  449 	clrw	x
      00020D CFu00u02         [ 2]  450 	ldw	_timer+0, x
                                    451 ;	./menu.c: 195: break;
      000210 CCr04r98         [ 2]  452 	jp	00250$
                                    453 ;	./menu.c: 197: case MENU_EVENT_PUSH_BUTTON3:
      000213                        454 00155$:
                                    455 ;	./menu.c: 198: decParamId();
      000213 CDr00r00         [ 4]  456 	call	_decParamId
                                    457 ;	./menu.c: 200: case MENU_EVENT_RELEASE_BUTTON3:
      000216                        458 00156$:
                                    459 ;	./menu.c: 201: timer = 0;
      000216 5F               [ 1]  460 	clrw	x
      000217 CFu00u02         [ 2]  461 	ldw	_timer+0, x
                                    462 ;	./menu.c: 202: break;
      00021A CCr04r98         [ 2]  463 	jp	00250$
                                    464 ;	./menu.c: 204: case MENU_EVENT_CHECK_TIMER:
      00021D                        465 00157$:
                                    466 ;	./menu.c: 205: if (timer > MENU_1_SEC_PASSED + MENU_AUTOINC_DELAY) {
      00021D 0D 04            [ 1]  467 	tnz	(0x04, sp)
      00021F 27 20            [ 1]  468 	jreq	00164$
                                    469 ;	./menu.c: 206: if (getButton2() ) {
      000221 CDr00r00         [ 4]  470 	call	_getButton2
      000224 4D               [ 1]  471 	tnz	a
      000225 27 0B            [ 1]  472 	jreq	00161$
                                    473 ;	./menu.c: 207: incParamId();
      000227 CDr00r00         [ 4]  474 	call	_incParamId
                                    475 ;	./menu.c: 208: timer = MENU_1_SEC_PASSED;
      00022A AE 00 20         [ 2]  476 	ldw	x, #0x0020
      00022D CFu00u02         [ 2]  477 	ldw	_timer+0, x
      000230 20 0F            [ 2]  478 	jra	00164$
      000232                        479 00161$:
                                    480 ;	./menu.c: 209: } else if (getButton3() ) {
      000232 CDr00r00         [ 4]  481 	call	_getButton3
      000235 4D               [ 1]  482 	tnz	a
      000236 27 09            [ 1]  483 	jreq	00164$
                                    484 ;	./menu.c: 210: decParamId();
      000238 CDr00r00         [ 4]  485 	call	_decParamId
                                    486 ;	./menu.c: 211: timer = MENU_1_SEC_PASSED;
      00023B AE 00 20         [ 2]  487 	ldw	x, #0x0020
      00023E CFu00u02         [ 2]  488 	ldw	_timer+0, x
      000241                        489 00164$:
                                    490 ;	./menu.c: 215: if (timer > MENU_5_SEC_PASSED) {
      000241 CEu00u02         [ 2]  491 	ldw	x, _timer+0
      000244 A3 00 A0         [ 2]  492 	cpw	x, #0x00a0
      000247 22 03            [ 1]  493 	jrugt	00554$
      000249 CCr04r98         [ 2]  494 	jp	00250$
      00024C                        495 00554$:
                                    496 ;	./menu.c: 216: timer = 0;
      00024C 5F               [ 1]  497 	clrw	x
      00024D CFu00u02         [ 2]  498 	ldw	_timer+0, x
                                    499 ;	./menu.c: 217: setParamId (0);
      000250 4B 00            [ 1]  500 	push	#0x00
      000252 CDr00r00         [ 4]  501 	call	_setParamId
      000255 84               [ 1]  502 	pop	a
                                    503 ;	./menu.c: 218: storeParams();
      000256 CDr00r00         [ 4]  504 	call	_storeParams
                                    505 ;	./menu.c: 219: menuState = menuDisplay = MENU_ROOT;
      000259 72 5Fu00u00      [ 1]  506 	clr	_menuDisplay+0
      00025D 72 5Fu00u01      [ 1]  507 	clr	_menuState+0
                                    508 ;	./menu.c: 222: break;
      000261 CCr04r98         [ 2]  509 	jp	00250$
                                    510 ;	./menu.c: 226: }
      000264                        511 00245$:
                                    512 ;	./menu.c: 227: } else if (menuState == MENU_CHANGE_PARAM) {
      000264 C6u00u01         [ 1]  513 	ld	a, _menuState+0
      000267 A1 03            [ 1]  514 	cp	a, #0x03
      000269 27 03            [ 1]  515 	jreq	00557$
      00026B CCr03r0D         [ 2]  516 	jp	00242$
      00026E                        517 00557$:
                                    518 ;	./menu.c: 228: switch (event) {
      00026E 0D 01            [ 1]  519 	tnz	(0x01, sp)
      000270 27 03            [ 1]  520 	jreq	00558$
      000272 CCr04r98         [ 2]  521 	jp	00250$
      000275                        522 00558$:
      000275 5F               [ 1]  523 	clrw	x
      000276 7B 07            [ 1]  524 	ld	a, (0x07, sp)
      000278 97               [ 1]  525 	ld	xl, a
      000279 58               [ 2]  526 	sllw	x
      00027A DEu02u7E         [ 2]  527 	ldw	x, (#00559$, x)
      00027D FC               [ 2]  528 	jp	(x)
      00027E                        529 00559$:
      00027Er02r8C                  530 	.dw	#00169$
      000280r02r9B                  531 	.dw	#00171$
      000282r02rA5                  532 	.dw	#00173$
      000284r02r94                  533 	.dw	#00170$
      000286r02r9E                  534 	.dw	#00172$
      000288r02rA8                  535 	.dw	#00174$
      00028Ar02rAF                  536 	.dw	#00175$
                                    537 ;	./menu.c: 229: case MENU_EVENT_PUSH_BUTTON1:
      00028C                        538 00169$:
                                    539 ;	./menu.c: 230: menuState = menuDisplay = MENU_SELECT_PARAM;
      00028C 35 02u00u00      [ 1]  540 	mov	_menuDisplay+0, #0x02
      000290 35 02u00u01      [ 1]  541 	mov	_menuState+0, #0x02
                                    542 ;	./menu.c: 232: case MENU_EVENT_RELEASE_BUTTON1:
      000294                        543 00170$:
                                    544 ;	./menu.c: 233: timer = 0;
      000294 5F               [ 1]  545 	clrw	x
      000295 CFu00u02         [ 2]  546 	ldw	_timer+0, x
                                    547 ;	./menu.c: 234: break;
      000298 CCr04r98         [ 2]  548 	jp	00250$
                                    549 ;	./menu.c: 236: case MENU_EVENT_PUSH_BUTTON2:
      00029B                        550 00171$:
                                    551 ;	./menu.c: 237: incParam();
      00029B CDr00r00         [ 4]  552 	call	_incParam
                                    553 ;	./menu.c: 239: case MENU_EVENT_RELEASE_BUTTON2:
      00029E                        554 00172$:
                                    555 ;	./menu.c: 240: timer = 0;
      00029E 5F               [ 1]  556 	clrw	x
      00029F CFu00u02         [ 2]  557 	ldw	_timer+0, x
                                    558 ;	./menu.c: 241: break;
      0002A2 CCr04r98         [ 2]  559 	jp	00250$
                                    560 ;	./menu.c: 243: case MENU_EVENT_PUSH_BUTTON3:
      0002A5                        561 00173$:
                                    562 ;	./menu.c: 244: decParam();
      0002A5 CDr00r00         [ 4]  563 	call	_decParam
                                    564 ;	./menu.c: 246: case MENU_EVENT_RELEASE_BUTTON3:
      0002A8                        565 00174$:
                                    566 ;	./menu.c: 247: timer = 0;
      0002A8 5F               [ 1]  567 	clrw	x
      0002A9 CFu00u02         [ 2]  568 	ldw	_timer+0, x
                                    569 ;	./menu.c: 248: break;
      0002AC CCr04r98         [ 2]  570 	jp	00250$
                                    571 ;	./menu.c: 250: case MENU_EVENT_CHECK_TIMER:
      0002AF                        572 00175$:
                                    573 ;	./menu.c: 251: if (timer > MENU_1_SEC_PASSED + MENU_AUTOINC_DELAY) {
      0002AF 0D 04            [ 1]  574 	tnz	(0x04, sp)
      0002B1 27 20            [ 1]  575 	jreq	00182$
                                    576 ;	./menu.c: 252: if (getButton2() ) {
      0002B3 CDr00r00         [ 4]  577 	call	_getButton2
      0002B6 4D               [ 1]  578 	tnz	a
      0002B7 27 0B            [ 1]  579 	jreq	00179$
                                    580 ;	./menu.c: 253: incParam();
      0002B9 CDr00r00         [ 4]  581 	call	_incParam
                                    582 ;	./menu.c: 254: timer = MENU_1_SEC_PASSED;
      0002BC AE 00 20         [ 2]  583 	ldw	x, #0x0020
      0002BF CFu00u02         [ 2]  584 	ldw	_timer+0, x
      0002C2 20 0F            [ 2]  585 	jra	00182$
      0002C4                        586 00179$:
                                    587 ;	./menu.c: 255: } else if (getButton3() ) {
      0002C4 CDr00r00         [ 4]  588 	call	_getButton3
      0002C7 4D               [ 1]  589 	tnz	a
      0002C8 27 09            [ 1]  590 	jreq	00182$
                                    591 ;	./menu.c: 256: decParam();
      0002CA CDr00r00         [ 4]  592 	call	_decParam
                                    593 ;	./menu.c: 257: timer = MENU_1_SEC_PASSED;
      0002CD AE 00 20         [ 2]  594 	ldw	x, #0x0020
      0002D0 CFu00u02         [ 2]  595 	ldw	_timer+0, x
      0002D3                        596 00182$:
                                    597 ;	./menu.c: 261: if (getButton1() && timer > MENU_3_SEC_PASSED) {
      0002D3 CDr00r00         [ 4]  598 	call	_getButton1
      0002D6 4D               [ 1]  599 	tnz	a
      0002D7 27 17            [ 1]  600 	jreq	00184$
      0002D9 CEu00u02         [ 2]  601 	ldw	x, _timer+0
      0002DC A3 00 60         [ 2]  602 	cpw	x, #0x0060
      0002DF 23 0F            [ 2]  603 	jrule	00184$
                                    604 ;	./menu.c: 262: timer = 0;
      0002E1 5F               [ 1]  605 	clrw	x
      0002E2 CFu00u02         [ 2]  606 	ldw	_timer+0, x
                                    607 ;	./menu.c: 263: menuState = menuDisplay = MENU_SELECT_PARAM;
      0002E5 35 02u00u00      [ 1]  608 	mov	_menuDisplay+0, #0x02
      0002E9 35 02u00u01      [ 1]  609 	mov	_menuState+0, #0x02
                                    610 ;	./menu.c: 264: break;
      0002ED CCr04r98         [ 2]  611 	jp	00250$
      0002F0                        612 00184$:
                                    613 ;	./menu.c: 267: if (timer > MENU_5_SEC_PASSED) {
      0002F0 CEu00u02         [ 2]  614 	ldw	x, _timer+0
      0002F3 A3 00 A0         [ 2]  615 	cpw	x, #0x00a0
      0002F6 22 03            [ 1]  616 	jrugt	00565$
      0002F8 CCr04r98         [ 2]  617 	jp	00250$
      0002FB                        618 00565$:
                                    619 ;	./menu.c: 268: timer = 0;
      0002FB 5F               [ 1]  620 	clrw	x
      0002FC CFu00u02         [ 2]  621 	ldw	_timer+0, x
                                    622 ;	./menu.c: 269: storeParams();
      0002FF CDr00r00         [ 4]  623 	call	_storeParams
                                    624 ;	./menu.c: 270: menuState = menuDisplay = MENU_ROOT;
      000302 72 5Fu00u00      [ 1]  625 	clr	_menuDisplay+0
      000306 72 5Fu00u01      [ 1]  626 	clr	_menuState+0
                                    627 ;	./menu.c: 273: break;
      00030A CCr04r98         [ 2]  628 	jp	00250$
                                    629 ;	./menu.c: 277: }
      00030D                        630 00242$:
                                    631 ;	./menu.c: 278: } else if (menuState == MENU_SET_THRESHOLD) {
      00030D C6u00u01         [ 1]  632 	ld	a, _menuState+0
      000310 4A               [ 1]  633 	dec	a
      000311 27 03            [ 1]  634 	jreq	00568$
      000313 CCr04r22         [ 2]  635 	jp	00239$
      000316                        636 00568$:
                                    637 ;	./menu.c: 279: switch (event) {
      000316 0D 01            [ 1]  638 	tnz	(0x01, sp)
      000318 27 03            [ 1]  639 	jreq	00569$
      00031A CCr04r98         [ 2]  640 	jp	00250$
      00031D                        641 00569$:
      00031D 5F               [ 1]  642 	clrw	x
      00031E 7B 07            [ 1]  643 	ld	a, (0x07, sp)
      000320 97               [ 1]  644 	ld	xl, a
      000321 58               [ 2]  645 	sllw	x
      000322 DEu03u26         [ 2]  646 	ldw	x, (#00570$, x)
      000325 FC               [ 2]  647 	jp	(x)
      000326                        648 00570$:
      000326r03r34                  649 	.dw	#00190$
      000328r03r5D                  650 	.dw	#00194$
      00032Ar03r7C                  651 	.dw	#00199$
      00032Cr03r45                  652 	.dw	#00191$
      00032Er03r75                  653 	.dw	#00198$
      000330r03r94                  654 	.dw	#00203$
      000332r03r9B                  655 	.dw	#00204$
                                    656 ;	./menu.c: 280: case MENU_EVENT_PUSH_BUTTON1:
      000334                        657 00190$:
                                    658 ;	./menu.c: 281: timer = 0;
      000334 5F               [ 1]  659 	clrw	x
      000335 CFu00u02         [ 2]  660 	ldw	_timer+0, x
                                    661 ;	./menu.c: 282: menuDisplay = MENU_ROOT;
      000338 72 5Fu00u00      [ 1]  662 	clr	_menuDisplay+0
                                    663 ;	./menu.c: 283: setDisplayOff (false);
      00033C 4B 00            [ 1]  664 	push	#0x00
      00033E CDr00r00         [ 4]  665 	call	_setDisplayOff
      000341 84               [ 1]  666 	pop	a
                                    667 ;	./menu.c: 284: break;
      000342 CCr04r98         [ 2]  668 	jp	00250$
                                    669 ;	./menu.c: 286: case MENU_EVENT_RELEASE_BUTTON1:
      000345                        670 00191$:
                                    671 ;	./menu.c: 287: if (timer < MENU_5_SEC_PASSED) {
      000345 0D 02            [ 1]  672 	tnz	(0x02, sp)
      000347 27 0D            [ 1]  673 	jreq	00193$
                                    674 ;	./menu.c: 288: storeParams();
      000349 CDr00r00         [ 4]  675 	call	_storeParams
                                    676 ;	./menu.c: 289: menuState = MENU_ROOT;
      00034C 72 5Fu00u01      [ 1]  677 	clr	_menuState+0
                                    678 ;	./menu.c: 290: setDisplayOff (false);
      000350 4B 00            [ 1]  679 	push	#0x00
      000352 CDr00r00         [ 4]  680 	call	_setDisplayOff
      000355 84               [ 1]  681 	pop	a
      000356                        682 00193$:
                                    683 ;	./menu.c: 293: timer = 0;
      000356 5F               [ 1]  684 	clrw	x
      000357 CFu00u02         [ 2]  685 	ldw	_timer+0, x
                                    686 ;	./menu.c: 294: break;
      00035A CCr04r98         [ 2]  687 	jp	00250$
                                    688 ;	./menu.c: 296: case MENU_EVENT_PUSH_BUTTON2:
      00035D                        689 00194$:
                                    690 ;	./menu.c: 297: setParamId (PARAM_THRESHOLD);
      00035D 4B 09            [ 1]  691 	push	#0x09
      00035F CDr00r00         [ 4]  692 	call	_setParamId
      000362 84               [ 1]  693 	pop	a
                                    694 ;	./menu.c: 298: if (!getParamById (PARAM_LOCK_BUTTONS) ) {
      000363 4B 07            [ 1]  695 	push	#0x07
      000365 CDr00r00         [ 4]  696 	call	_getParamById
      000368 84               [ 1]  697 	pop	a
      000369 5D               [ 2]  698 	tnzw	x
      00036A 26 05            [ 1]  699 	jrne	00196$
                                    700 ;	./menu.c: 299: incParam();
      00036C CDr00r00         [ 4]  701 	call	_incParam
      00036F 20 04            [ 2]  702 	jra	00198$
      000371                        703 00196$:
                                    704 ;	./menu.c: 301: menuDisplay = MENU_EEPROM_LOC_2;
      000371 35 09u00u00      [ 1]  705 	mov	_menuDisplay+0, #0x09
                                    706 ;	./menu.c: 304: case MENU_EVENT_RELEASE_BUTTON2:
      000375                        707 00198$:
                                    708 ;	./menu.c: 305: timer = 0;
      000375 5F               [ 1]  709 	clrw	x
      000376 CFu00u02         [ 2]  710 	ldw	_timer+0, x
                                    711 ;	./menu.c: 306: break;
      000379 CCr04r98         [ 2]  712 	jp	00250$
                                    713 ;	./menu.c: 308: case MENU_EVENT_PUSH_BUTTON3:
      00037C                        714 00199$:
                                    715 ;	./menu.c: 309: setParamId (PARAM_THRESHOLD);
      00037C 4B 09            [ 1]  716 	push	#0x09
      00037E CDr00r00         [ 4]  717 	call	_setParamId
      000381 84               [ 1]  718 	pop	a
                                    719 ;	./menu.c: 310: if (!getParamById (PARAM_LOCK_BUTTONS) ) {
      000382 4B 07            [ 1]  720 	push	#0x07
      000384 CDr00r00         [ 4]  721 	call	_getParamById
      000387 84               [ 1]  722 	pop	a
      000388 5D               [ 2]  723 	tnzw	x
      000389 26 05            [ 1]  724 	jrne	00201$
                                    725 ;	./menu.c: 311: decParam();
      00038B CDr00r00         [ 4]  726 	call	_decParam
      00038E 20 04            [ 2]  727 	jra	00203$
      000390                        728 00201$:
                                    729 ;	./menu.c: 313: menuDisplay = MENU_EEPROM_LOC_2;
      000390 35 09u00u00      [ 1]  730 	mov	_menuDisplay+0, #0x09
                                    731 ;	./menu.c: 316: case MENU_EVENT_RELEASE_BUTTON3:
      000394                        732 00203$:
                                    733 ;	./menu.c: 317: timer = 0;
      000394 5F               [ 1]  734 	clrw	x
      000395 CFu00u02         [ 2]  735 	ldw	_timer+0, x
                                    736 ;	./menu.c: 318: break;
      000398 CCr04r98         [ 2]  737 	jp	00250$
                                    738 ;	./menu.c: 320: case MENU_EVENT_CHECK_TIMER:
      00039B                        739 00204$:
                                    740 ;	./menu.c: 321: if (getButton2() || getButton3() ) {
      00039B CDr00r00         [ 4]  741 	call	_getButton2
      00039E 4D               [ 1]  742 	tnz	a
      00039F 26 06            [ 1]  743 	jrne	00205$
      0003A1 CDr00r00         [ 4]  744 	call	_getButton3
      0003A4 4D               [ 1]  745 	tnz	a
      0003A5 27 04            [ 1]  746 	jreq	00206$
      0003A7                        747 00205$:
                                    748 ;	./menu.c: 322: blink = false;
      0003A7 0F 04            [ 1]  749 	clr	(0x04, sp)
      0003A9 20 09            [ 2]  750 	jra	00207$
      0003AB                        751 00206$:
                                    752 ;	./menu.c: 324: blink = (bool) ( (unsigned char) getUptimeTicks() & 0x80);
      0003AB CDr00r00         [ 4]  753 	call	_getUptimeTicks
      0003AE 9F               [ 1]  754 	ld	a, xl
      0003AF 48               [ 1]  755 	sll	a
      0003B0 4F               [ 1]  756 	clr	a
      0003B1 49               [ 1]  757 	rlc	a
      0003B2 6B 04            [ 1]  758 	ld	(0x04, sp), a
      0003B4                        759 00207$:
                                    760 ;	./menu.c: 327: if (timer > MENU_1_SEC_PASSED + MENU_AUTOINC_DELAY) {
      0003B4 CEu00u02         [ 2]  761 	ldw	x, _timer+0
      0003B7 A3 00 24         [ 2]  762 	cpw	x, #0x0024
      0003BA 23 26            [ 2]  763 	jrule	00215$
                                    764 ;	./menu.c: 328: setParamId (PARAM_THRESHOLD);
      0003BC 4B 09            [ 1]  765 	push	#0x09
      0003BE CDr00r00         [ 4]  766 	call	_setParamId
      0003C1 84               [ 1]  767 	pop	a
                                    768 ;	./menu.c: 330: if (getButton2() ) {
      0003C2 CDr00r00         [ 4]  769 	call	_getButton2
      0003C5 4D               [ 1]  770 	tnz	a
      0003C6 27 0B            [ 1]  771 	jreq	00212$
                                    772 ;	./menu.c: 331: incParam();
      0003C8 CDr00r00         [ 4]  773 	call	_incParam
                                    774 ;	./menu.c: 332: timer = MENU_1_SEC_PASSED;
      0003CB AE 00 20         [ 2]  775 	ldw	x, #0x0020
      0003CE CFu00u02         [ 2]  776 	ldw	_timer+0, x
      0003D1 20 0F            [ 2]  777 	jra	00215$
      0003D3                        778 00212$:
                                    779 ;	./menu.c: 333: } else if (getButton3() ) {
      0003D3 CDr00r00         [ 4]  780 	call	_getButton3
      0003D6 4D               [ 1]  781 	tnz	a
      0003D7 27 09            [ 1]  782 	jreq	00215$
                                    783 ;	./menu.c: 334: decParam();
      0003D9 CDr00r00         [ 4]  784 	call	_decParam
                                    785 ;	./menu.c: 335: timer = MENU_1_SEC_PASSED;
      0003DC AE 00 20         [ 2]  786 	ldw	x, #0x0020
      0003DF CFu00u02         [ 2]  787 	ldw	_timer+0, x
      0003E2                        788 00215$:
                                    789 ;	./menu.c: 339: setDisplayOff (blink);
      0003E2 7B 04            [ 1]  790 	ld	a, (0x04, sp)
      0003E4 88               [ 1]  791 	push	a
      0003E5 CDr00r00         [ 4]  792 	call	_setDisplayOff
      0003E8 84               [ 1]  793 	pop	a
                                    794 ;	./menu.c: 341: if (timer > MENU_5_SEC_PASSED) {
      0003E9 CEu00u02         [ 2]  795 	ldw	x, _timer+0
      0003EC A3 00 A0         [ 2]  796 	cpw	x, #0x00a0
      0003EF 22 03            [ 1]  797 	jrugt	00579$
      0003F1 CCr04r98         [ 2]  798 	jp	00250$
      0003F4                        799 00579$:
                                    800 ;	./menu.c: 342: timer = 0;
      0003F4 5F               [ 1]  801 	clrw	x
      0003F5 CFu00u02         [ 2]  802 	ldw	_timer+0, x
                                    803 ;	./menu.c: 344: if (getButton1() ) {
      0003F8 CDr00r00         [ 4]  804 	call	_getButton1
      0003FB 4D               [ 1]  805 	tnz	a
      0003FC 27 11            [ 1]  806 	jreq	00217$
                                    807 ;	./menu.c: 345: menuState = menuDisplay = MENU_SELECT_PARAM;
      0003FE 35 02u00u00      [ 1]  808 	mov	_menuDisplay+0, #0x02
      000402 35 02u00u01      [ 1]  809 	mov	_menuState+0, #0x02
                                    810 ;	./menu.c: 346: setDisplayOff (false);
      000406 4B 00            [ 1]  811 	push	#0x00
      000408 CDr00r00         [ 4]  812 	call	_setDisplayOff
      00040B 84               [ 1]  813 	pop	a
                                    814 ;	./menu.c: 347: break;
      00040C CCr04r98         [ 2]  815 	jp	00250$
      00040F                        816 00217$:
                                    817 ;	./menu.c: 350: storeParams();
      00040F CDr00r00         [ 4]  818 	call	_storeParams
                                    819 ;	./menu.c: 351: menuState = menuDisplay = MENU_ROOT;
      000412 72 5Fu00u00      [ 1]  820 	clr	_menuDisplay+0
      000416 72 5Fu00u01      [ 1]  821 	clr	_menuState+0
                                    822 ;	./menu.c: 352: setDisplayOff (false);
      00041A 4B 00            [ 1]  823 	push	#0x00
      00041C CDr00r00         [ 4]  824 	call	_setDisplayOff
      00041F 84               [ 1]  825 	pop	a
                                    826 ;	./menu.c: 355: break;
      000420 20 76            [ 2]  827 	jra	00250$
                                    828 ;	./menu.c: 359: }
      000422                        829 00239$:
                                    830 ;	./menu.c: 360: } else if (menuState == MENU_ALARM) {
      000422 C6u00u01         [ 1]  831 	ld	a, _menuState+0
      000425 A1 04            [ 1]  832 	cp	a, #0x04
      000427 26 6F            [ 1]  833 	jrne	00250$
                                    834 ;	./menu.c: 361: switch (event) {
      000429 7B 07            [ 1]  835 	ld	a, (0x07, sp)
      00042B A1 05            [ 1]  836 	cp	a, #0x05
      00042D 22 4D            [ 1]  837 	jrugt	00230$
      00042F 5F               [ 1]  838 	clrw	x
      000430 7B 07            [ 1]  839 	ld	a, (0x07, sp)
      000432 97               [ 1]  840 	ld	xl, a
      000433 58               [ 2]  841 	sllw	x
      000434 DEu04u38         [ 2]  842 	ldw	x, (#00585$, x)
      000437 FC               [ 2]  843 	jp	(x)
      000438                        844 00585$:
      000438r04r44                  845 	.dw	#00222$
      00043Ar04r68                  846 	.dw	#00226$
      00043Cr04r72                  847 	.dw	#00228$
      00043Er04r54                  848 	.dw	#00223$
      000440r04r6C                  849 	.dw	#00227$
      000442r04r76                  850 	.dw	#00229$
                                    851 ;	./menu.c: 362: case MENU_EVENT_PUSH_BUTTON1:
      000444                        852 00222$:
                                    853 ;	./menu.c: 363: timer = 0;
      000444 5F               [ 1]  854 	clrw	x
      000445 CFu00u02         [ 2]  855 	ldw	_timer+0, x
                                    856 ;	./menu.c: 364: menuDisplay = MENU_ROOT;
      000448 72 5Fu00u00      [ 1]  857 	clr	_menuDisplay+0
                                    858 ;	./menu.c: 365: setDisplayOff (false);
      00044C 4B 00            [ 1]  859 	push	#0x00
      00044E CDr00r00         [ 4]  860 	call	_setDisplayOff
      000451 84               [ 1]  861 	pop	a
                                    862 ;	./menu.c: 366: break;
      000452 20 44            [ 2]  863 	jra	00250$
                                    864 ;	./menu.c: 368: case MENU_EVENT_RELEASE_BUTTON1:
      000454                        865 00223$:
                                    866 ;	./menu.c: 369: if (timer < MENU_5_SEC_PASSED) {
      000454 0D 02            [ 1]  867 	tnz	(0x02, sp)
      000456 27 0A            [ 1]  868 	jreq	00225$
                                    869 ;	./menu.c: 370: menuState = MENU_ROOT;
      000458 72 5Fu00u01      [ 1]  870 	clr	_menuState+0
                                    871 ;	./menu.c: 371: setDisplayOff (false);
      00045C 4B 00            [ 1]  872 	push	#0x00
      00045E CDr00r00         [ 4]  873 	call	_setDisplayOff
      000461 84               [ 1]  874 	pop	a
      000462                        875 00225$:
                                    876 ;	./menu.c: 374: timer = 0;
      000462 5F               [ 1]  877 	clrw	x
      000463 CFu00u02         [ 2]  878 	ldw	_timer+0, x
                                    879 ;	./menu.c: 375: break;
      000466 20 30            [ 2]  880 	jra	00250$
                                    881 ;	./menu.c: 377: case MENU_EVENT_PUSH_BUTTON2:
      000468                        882 00226$:
                                    883 ;	./menu.c: 378: menuDisplay = MENU_ALARM_HIGH;
      000468 35 05u00u00      [ 1]  884 	mov	_menuDisplay+0, #0x05
                                    885 ;	./menu.c: 380: case MENU_EVENT_RELEASE_BUTTON2:
      00046C                        886 00227$:
                                    887 ;	./menu.c: 381: timer = 0;
      00046C 5F               [ 1]  888 	clrw	x
      00046D CFu00u02         [ 2]  889 	ldw	_timer+0, x
                                    890 ;	./menu.c: 382: break;
      000470 20 26            [ 2]  891 	jra	00250$
                                    892 ;	./menu.c: 384: case MENU_EVENT_PUSH_BUTTON3:
      000472                        893 00228$:
                                    894 ;	./menu.c: 385: menuDisplay = MENU_ALARM_LOW;
      000472 35 06u00u00      [ 1]  895 	mov	_menuDisplay+0, #0x06
                                    896 ;	./menu.c: 387: case MENU_EVENT_RELEASE_BUTTON3:
      000476                        897 00229$:
                                    898 ;	./menu.c: 388: timer = 0;
      000476 5F               [ 1]  899 	clrw	x
      000477 CFu00u02         [ 2]  900 	ldw	_timer+0, x
                                    901 ;	./menu.c: 389: break;
      00047A 20 1C            [ 2]  902 	jra	00250$
                                    903 ;	./menu.c: 391: default:
      00047C                        904 00230$:
                                    905 ;	./menu.c: 392: if (timer > MENU_3_SEC_PASSED) {
      00047C CEu00u02         [ 2]  906 	ldw	x, _timer+0
      00047F A3 00 60         [ 2]  907 	cpw	x, #0x0060
      000482 23 04            [ 2]  908 	jrule	00232$
                                    909 ;	./menu.c: 393: menuDisplay = MENU_ALARM;
      000484 35 04u00u00      [ 1]  910 	mov	_menuDisplay+0, #0x04
      000488                        911 00232$:
                                    912 ;	./menu.c: 396: if (timer > MENU_5_SEC_PASSED) {
      000488 0D 03            [ 1]  913 	tnz	(0x03, sp)
      00048A 27 0C            [ 1]  914 	jreq	00250$
                                    915 ;	./menu.c: 397: timer = 0;
      00048C 5F               [ 1]  916 	clrw	x
      00048D CFu00u02         [ 2]  917 	ldw	_timer+0, x
                                    918 ;	./menu.c: 398: menuState = menuDisplay = MENU_ROOT;
      000490 72 5Fu00u00      [ 1]  919 	clr	_menuDisplay+0
      000494 72 5Fu00u01      [ 1]  920 	clr	_menuState+0
                                    921 ;	./menu.c: 402: }
      000498                        922 00250$:
                                    923 ;	./menu.c: 404: }
      000498 5B 04            [ 2]  924 	addw	sp, #4
      00049A 81               [ 4]  925 	ret
                                    926 ;	./menu.c: 414: void refreshMenu()
                                    927 ;	-----------------------------------------
                                    928 ;	 function refreshMenu
                                    929 ;	-----------------------------------------
      00049B                        930 _refreshMenu:
                                    931 ;	./menu.c: 416: timer++;
      00049B CEu00u02         [ 2]  932 	ldw	x, _timer+0
      00049E 5C               [ 1]  933 	incw	x
      00049F CFu00u02         [ 2]  934 	ldw	_timer+0, x
                                    935 ;	./menu.c: 417: feedMenu (MENU_EVENT_CHECK_TIMER);
      0004A2 4B 06            [ 1]  936 	push	#0x06
      0004A4 CDr00r17         [ 4]  937 	call	_feedMenu
      0004A7 84               [ 1]  938 	pop	a
                                    939 ;	./menu.c: 418: }
      0004A8 81               [ 4]  940 	ret
                                    941 	.area CODE
                                    942 	.area CONST
                                    943 	.area INITIALIZER
      000000                        944 __xinit__autoBrightness:
      000000 01                     945 	.db #0x01	;  1
      000001                        946 __xinit__lowBrightness:
      000001 00                     947 	.db #0x00	;  0
                                    948 	.area CABS (ABS)
